; Function Attrs: mustprogress uwtable
define void @_ZNK3gmx25CommandLineProgramContext14fullBinaryPathB5cxx11Ev(ptr dead_on_unwind noalias writable sret(%"class.std::filesystem::__cxx11::path") align 8 %0, ptr nocapture noundef nonnull readonly align 8 dereferenceable(16) %1) unnamed_addr #1 align 2 personality ptr @__gxx_personality_v0 {
  %3 = alloca ptr, align 8
  %4 = getelementptr inbounds i8, ptr %1, i64 8
  %5 = load ptr, ptr %4, align 8
  %6 = getelementptr inbounds i8, ptr %5, i64 232
  %7 = tail call noundef i32 @pthread_mutex_lock(ptr noundef nonnull %6) #13
  %.not.i.i = icmp eq i32 %7, 0
  br i1 %.not.i.i, label %_ZNSt10lock_guardISt5mutexEC2ERS0_.exit, label %8

8:                                                ; preds = %2
  tail call void @_ZSt20__throw_system_errori(i32 noundef %7) #14
  unreachable

_ZNSt10lock_guardISt5mutexEC2ERS0_.exit:          ; preds = %2
  %9 = load ptr, ptr %4, align 8
  invoke void @_ZNK3gmx25CommandLineProgramContext4Impl14findBinaryPathEv(ptr noundef nonnull align 8 dereferenceable(272) %9)
          to label %10 unwind label %16

10:                                               ; preds = %_ZNSt10lock_guardISt5mutexEC2ERS0_.exit
  %11 = load ptr, ptr %4, align 8
  %12 = getelementptr inbounds i8, ptr %11, i64 144
  %13 = tail call noundef ptr @_ZNKSt7__cxx1112basic_stringIcSt11char_traitsIcESaIcEE5c_strEv(ptr noundef nonnull align 8 dereferenceable(32) %12) #13
  store ptr %13, ptr %3, align 8
  invoke void @_ZNSt10filesystem7__cxx114pathC2IPKcS1_EERKT_NS1_6formatE(ptr noundef nonnull align 8 dereferenceable(40) %0, ptr noundef nonnull align 8 dereferenceable(8) %3, i8 noundef zeroext 2)
          to label %14 unwind label %16

14:                                               ; preds = %10
  %15 = call noundef i32 @pthread_mutex_unlock(ptr noundef nonnull %6) #13
  ret void

16:                                               ; preds = %10, %_ZNSt10lock_guardISt5mutexEC2ERS0_.exit
  %17 = landingpad { ptr, i32 }
          cleanup
  %18 = call noundef i32 @pthread_mutex_unlock(ptr noundef nonnull %6) #13
  resume { ptr, i32 } %17
}